; Function Attrs: nounwind uwtable
define ptr @l_Lean_PersistentHashMap_toArray___rarg(ptr noundef readnone captures(none) %0, ptr noundef readnone captures(none) %1, ptr noundef %2) local_unnamed_addr #2 {
  %4 = load ptr, ptr @l_Lean_PersistentHashMap_toArray___rarg___closed__1, align 8, !tbaa !9
  %5 = load ptr, ptr @l_Lean_PersistentHashMap_instInhabitedNode___closed__1, align 8, !tbaa !9
  %6 = ptrtoint ptr %2 to i64
  %7 = and i64 %6, 1
  %.not.i45.i = icmp eq i64 %7, 0
  br i1 %.not.i45.i, label %11, label %8

8:                                                ; preds = %3
  %9 = lshr i64 %6, 1
  %10 = trunc i64 %9 to i32
  br label %lean_obj_tag.exit.i

11:                                               ; preds = %3
  %12 = getelementptr i8, ptr %2, i64 4
  %.val.i.i = load i32, ptr %12, align 4
  %13 = lshr i32 %.val.i.i, 24
  br label %lean_obj_tag.exit.i

lean_obj_tag.exit.i:                              ; preds = %11, %8
  %.0.i46.i = phi i32 [ %10, %8 ], [ %13, %11 ]
  %14 = icmp eq i32 %.0.i46.i, 0
  %15 = getelementptr inbounds nuw i8, ptr %2, i64 8
  %16 = load ptr, ptr %15, align 8, !tbaa !9
  br i1 %14, label %lean_nat_lt.exit.i, label %28

lean_nat_lt.exit.i:                               ; preds = %lean_obj_tag.exit.i
  %17 = getelementptr i8, ptr %16, i64 8
  %.val.i = load i64, ptr %17, align 8, !tbaa !12
  %.mask.i = and i64 %.val.i, 9223372036854775807
  %.not.i = icmp eq i64 %.mask.i, 0
  br i1 %.not.i, label %lean_dec.exit34.i, label %lean_dec.exit.i

lean_dec.exit34.i:                                ; preds = %lean_nat_lt.exit.i
  %18 = ptrtoint ptr %4 to i64
  %19 = and i64 %18, 1
  %.not48.i = icmp eq i64 %19, 0
  br i1 %.not48.i, label %20, label %l_Lean_PersistentHashMap_foldlMAux___at_Lean_PersistentHashMap_toArray___spec__2___rarg.exit

20:                                               ; preds = %lean_dec.exit34.i
  %21 = load i32, ptr %4, align 4, !tbaa !4
  %22 = icmp sgt i32 %21, 1
  br i1 %22, label %23, label %25, !prof !11

23:                                               ; preds = %20
  %24 = add nsw i32 %21, -1
  store i32 %24, ptr %4, align 4, !tbaa !4
  br label %l_Lean_PersistentHashMap_foldlMAux___at_Lean_PersistentHashMap_toArray___spec__2___rarg.exit

25:                                               ; preds = %20
  %.not.i35.i = icmp eq i32 %21, 0
  br i1 %.not.i35.i, label %l_Lean_PersistentHashMap_foldlMAux___at_Lean_PersistentHashMap_toArray___spec__2___rarg.exit, label %26

26:                                               ; preds = %25
  tail call void @lean_dec_ref_cold(ptr noundef nonnull %4) #7
  br label %l_Lean_PersistentHashMap_foldlMAux___at_Lean_PersistentHashMap_toArray___spec__2___rarg.exit

lean_dec.exit.i:                                  ; preds = %lean_nat_lt.exit.i
  %27 = tail call ptr @l_Array_foldlMUnsafe_fold___at_Lean_PersistentHashMap_toArray___spec__3___rarg(ptr noundef %4, ptr noundef nonnull %16, i64 noundef 0, i64 noundef %.mask.i, ptr noundef %5) #9
  br label %l_Lean_PersistentHashMap_foldlMAux___at_Lean_PersistentHashMap_toArray___spec__2___rarg.exit

28:                                               ; preds = %lean_obj_tag.exit.i
  %29 = getelementptr inbounds nuw i8, ptr %2, i64 16
  %30 = load ptr, ptr %29, align 8, !tbaa !9
  %31 = tail call ptr @l_Lean_PersistentHashMap_foldlMAux_traverse___at_Lean_PersistentHashMap_toArray___spec__4___rarg(ptr noundef %4, ptr noundef %16, ptr noundef %30, ptr nonnull poison, ptr noundef nonnull inttoptr (i64 1 to ptr), ptr noundef %5)
  br label %l_Lean_PersistentHashMap_foldlMAux___at_Lean_PersistentHashMap_toArray___spec__2___rarg.exit

l_Lean_PersistentHashMap_foldlMAux___at_Lean_PersistentHashMap_toArray___spec__2___rarg.exit: ; preds = %lean_dec.exit34.i, %23, %25, %26, %lean_dec.exit.i, %28
  %.2.i = phi ptr [ %31, %28 ], [ %27, %lean_dec.exit.i ], [ %5, %26 ], [ %5, %25 ], [ %5, %23 ], [ %5, %lean_dec.exit34.i ]
  ret ptr %.2.i
}